target datalayout = "e-m:e-p270:32:32-p271:32:32-p272:64:64-i64:64-i128:128-f80:128-n8:16:32:64-S128"
target triple = "x86_64-pc-linux-gnu"

%"class.(anonymous namespace)::FunctorClass" = type { %"class.std::function" }
%"class.std::function" = type { %"class.std::_Function_base", ptr }
%"class.std::_Function_base" = type { %"union.std::_Any_data", ptr }
%"union.std::_Any_data" = type { %"union.std::_Nocopy_types" }
%"union.std::_Nocopy_types" = type { { i64, i64 } }
%"class.absl::Cleanup.14" = type { %"class.absl::cleanup_internal::Storage.15" }
%"class.absl::cleanup_internal::Storage.15" = type { i8, [7 x i8], [32 x i8] }

; Function Attrs: mustprogress nounwind uwtable
define linkonce_odr dso_local void @_ZNSt14_Function_baseD2Ev(ptr noundef nonnull align 8 dereferenceable(24) %0) unnamed_addr #6 comdat align 2 personality ptr @__gxx_personality_v0 {
  %2 = alloca ptr, align 8
  store ptr %0, ptr %2, align 8, !tbaa !123
  %3 = load ptr, ptr %2, align 8
  %4 = getelementptr inbounds nuw %"class.std::_Function_base", ptr %3, i32 0, i32 1
  %5 = load ptr, ptr %4, align 8, !tbaa !122
  %6 = icmp ne ptr %5, null
  br i1 %6, label %7, label %14

7:                                                ; preds = %1
  %8 = getelementptr inbounds nuw %"class.std::_Function_base", ptr %3, i32 0, i32 1
  %9 = load ptr, ptr %8, align 8, !tbaa !122
  %10 = getelementptr inbounds nuw %"class.std::_Function_base", ptr %3, i32 0, i32 0
  %11 = getelementptr inbounds nuw %"class.std::_Function_base", ptr %3, i32 0, i32 0
  %12 = invoke noundef zeroext i1 %9(ptr noundef nonnull align 8 dereferenceable(16) %10, ptr noundef nonnull align 8 dereferenceable(16) %11, i32 noundef 3)
          to label %13 unwind label %15

13:                                               ; preds = %7
  br label %14

14:                                               ; preds = %13, %1
  ret void

15:                                               ; preds = %7
  %16 = landingpad { ptr, i32 }
          catch ptr null
  %17 = extractvalue { ptr, i32 } %16, 0
  call void @__clang_call_terminate(ptr %17) #22
  unreachable
}

; Function Attrs: mustprogress nounwind uwtable
define internal noundef ptr @_ZN4absl16cleanup_internal7StorageIN12_GLOBAL__N_112FunctorClassEE17GetCallbackBufferEv(ptr noundef nonnull align 8 dereferenceable(40) %0) #6 align 2 {
  %2 = alloca ptr, align 8
  store ptr %0, ptr %2, align 8, !tbaa !130
  %3 = load ptr, ptr %2, align 8
  %4 = getelementptr inbounds nuw %"class.absl::cleanup_internal::Storage.15", ptr %3, i32 0, i32 2
  %5 = getelementptr inbounds [32 x i8], ptr %4, i64 0, i64 0
  ret ptr %5
}

; Function Attrs: inlinehint mustprogress nounwind uwtable
define internal void @_ZN12_GLOBAL__N_112FunctorClassD2Ev(ptr noundef nonnull align 8 dereferenceable(32) %0) unnamed_addr #7 align 2 {
  %2 = alloca ptr, align 8
  store ptr %0, ptr %2, align 8, !tbaa !113
  %3 = load ptr, ptr %2, align 8
  %4 = getelementptr inbounds nuw %"class.(anonymous namespace)::FunctorClass", ptr %3, i32 0, i32 0
  call void @_ZNSt14_Function_baseD2Ev(ptr noundef nonnull align 8 dereferenceable(32) %4) #3
  ret void
}

; Function Attrs: mustprogress nounwind uwtable
define internal noundef nonnull align 8 dereferenceable(32) ptr @_ZN4absl16cleanup_internal7StorageIN12_GLOBAL__N_112FunctorClassEE11GetCallbackEv(ptr noundef nonnull align 8 dereferenceable(40) %0) #6 align 2 {
  %2 = alloca ptr, align 8
  store ptr %0, ptr %2, align 8, !tbaa !130
  %3 = load ptr, ptr %2, align 8
  %4 = call noundef ptr @_ZN4absl16cleanup_internal7StorageIN12_GLOBAL__N_112FunctorClassEE17GetCallbackBufferEv(ptr noundef nonnull align 8 dereferenceable(40) %3)
  ret ptr %4
}

; Function Attrs: mustprogress nounwind uwtable
define internal void @_ZN4absl16cleanup_internal7StorageIN12_GLOBAL__N_112FunctorClassEE15DestroyCallbackEv(ptr noundef nonnull align 8 dereferenceable(40) %0) #6 align 2 {
  %2 = alloca ptr, align 8
  store ptr %0, ptr %2, align 8, !tbaa !130
  %3 = load ptr, ptr %2, align 8
  %4 = getelementptr inbounds nuw %"class.absl::cleanup_internal::Storage.15", ptr %3, i32 0, i32 0
  store i8 0, ptr %4, align 8, !tbaa !132
  %5 = call noundef nonnull align 8 dereferenceable(32) ptr @_ZN4absl16cleanup_internal7StorageIN12_GLOBAL__N_112FunctorClassEE11GetCallbackEv(ptr noundef nonnull align 8 dereferenceable(40) %3)
  call void @_ZN12_GLOBAL__N_112FunctorClassD2Ev(ptr noundef nonnull align 8 dereferenceable(32) %5) #3
  ret void
}

; Function Attrs: mustprogress nounwind uwtable
define internal noundef zeroext i1 @_ZNK4absl16cleanup_internal7StorageIN12_GLOBAL__N_112FunctorClassEE17IsCallbackEngagedEv(ptr noundef nonnull align 8 dereferenceable(40) %0) #6 align 2 {
  %2 = alloca ptr, align 8
  store ptr %0, ptr %2, align 8, !tbaa !130
  %3 = load ptr, ptr %2, align 8
  %4 = getelementptr inbounds nuw %"class.absl::cleanup_internal::Storage.15", ptr %3, i32 0, i32 0
  %5 = load i8, ptr %4, align 8, !tbaa !132, !range !65, !noundef !66
  %6 = trunc i8 %5 to i1
  ret i1 %6
}

; Function Attrs: mustprogress nounwind uwtable
define internal void @_ZN4absl7CleanupINS_16cleanup_internal3TagEN12_GLOBAL__N_112FunctorClassEED2Ev(ptr noundef nonnull align 8 dereferenceable(40) %0) unnamed_addr #6 align 2 personality ptr @__gxx_personality_v0 {
  %2 = alloca ptr, align 8
  store ptr %0, ptr %2, align 8, !tbaa !115
  %3 = load ptr, ptr %2, align 8
  %4 = getelementptr inbounds nuw %"class.absl::Cleanup.14", ptr %3, i32 0, i32 0
  %5 = invoke noundef zeroext i1 @_ZNK4absl16cleanup_internal7StorageIN12_GLOBAL__N_112FunctorClassEE17IsCallbackEngagedEv(ptr noundef nonnull align 8 dereferenceable(40) %4)
          to label %6 unwind label %13

6:                                                ; preds = %1
  br i1 %5, label %7, label %12

7:                                                ; preds = %6
  %8 = getelementptr inbounds nuw %"class.absl::Cleanup.14", ptr %3, i32 0, i32 0
  invoke void @_ZN4absl16cleanup_internal7StorageIN12_GLOBAL__N_112FunctorClassEE14InvokeCallbackEv(ptr noundef nonnull align 8 dereferenceable(40) %8)
          to label %9 unwind label %13

9:                                                ; preds = %7
  %10 = getelementptr inbounds nuw %"class.absl::Cleanup.14", ptr %3, i32 0, i32 0
  invoke void @_ZN4absl16cleanup_internal7StorageIN12_GLOBAL__N_112FunctorClassEE15DestroyCallbackEv(ptr noundef nonnull align 8 dereferenceable(40) %10)
          to label %11 unwind label %13

11:                                               ; preds = %9
  br label %12

12:                                               ; preds = %11, %6
  ret void

13:                                               ; preds = %9, %7, %1
  %14 = landingpad { ptr, i32 }
          catch ptr null
  %15 = extractvalue { ptr, i32 } %14, 0
  call void @__clang_call_terminate(ptr %15) #22
  unreachable
}