; Function Attrs: mustprogress nounwind uwtable
define internal fastcc void @_ZN4absl7CleanupINS_16cleanup_internal3TagEN12_GLOBAL__N_112FunctorClassEED2Ev(ptr noundef nonnull align 8 dereferenceable(40) %0) unnamed_addr #5 align 2 personality ptr @__gxx_personality_v0 {
  %.val = load i8, ptr %0, align 8, !tbaa !58, !range !62, !noundef !63
  %2 = trunc nuw i8 %.val to i1
  br i1 %2, label %3, label %_ZN4absl16cleanup_internal7StorageIN12_GLOBAL__N_112FunctorClassEE15DestroyCallbackEv.exit

3:                                                ; preds = %1
  invoke fastcc void @_ZN4absl16cleanup_internal7StorageIN12_GLOBAL__N_112FunctorClassEE14InvokeCallbackEv(ptr noundef nonnull align 8 dereferenceable(40) %0)
          to label %4 unwind label %13

4:                                                ; preds = %3
  store i8 0, ptr %0, align 8, !tbaa !58
  %5 = getelementptr inbounds nuw i8, ptr %0, i64 24
  %6 = load ptr, ptr %5, align 8, !tbaa !47
  %.not.i.i.i = icmp eq ptr %6, null
  br i1 %.not.i.i.i, label %_ZN4absl16cleanup_internal7StorageIN12_GLOBAL__N_112FunctorClassEE15DestroyCallbackEv.exit, label %7

7:                                                ; preds = %4
  %8 = getelementptr inbounds nuw i8, ptr %0, i64 8
  %9 = invoke noundef zeroext i1 %6(ptr noundef nonnull align 8 dereferenceable(32) %8, ptr noundef nonnull align 8 dereferenceable(32) %8, i32 noundef 3)
          to label %_ZN4absl16cleanup_internal7StorageIN12_GLOBAL__N_112FunctorClassEE15DestroyCallbackEv.exit unwind label %10

10:                                               ; preds = %7
  %11 = landingpad { ptr, i32 }
          catch ptr null
  %12 = extractvalue { ptr, i32 } %11, 0
  tail call void @__clang_call_terminate(ptr %12) #29
  unreachable

_ZN4absl16cleanup_internal7StorageIN12_GLOBAL__N_112FunctorClassEE15DestroyCallbackEv.exit: ; preds = %7, %4, %1
  ret void

13:                                               ; preds = %3
  %14 = landingpad { ptr, i32 }
          catch ptr null
  %15 = extractvalue { ptr, i32 } %14, 0
  tail call void @__clang_call_terminate(ptr %15) #29
  unreachable
}